target datalayout = "e-m:e-p270:32:32-p271:32:32-p272:64:64-i64:64-i128:128-f80:128-n8:16:32:64-S128"
target triple = "x86_64-pc-linux-gnu"

%"class.std::basic_ostream" = type { ptr, %"class.std::basic_ios" }
%"class.std::basic_ios" = type { %"class.std::ios_base", ptr, i8, i8, ptr, ptr, ptr, ptr }
%"class.std::ios_base" = type { ptr, i64, i64, i32, i32, i32, ptr, %"struct.std::ios_base::_Words", [8 x %"struct.std::ios_base::_Words"], i32, ptr, %"class.std::locale" }
%"struct.std::ios_base::_Words" = type { ptr, i64 }
%"class.std::locale" = type { ptr }
%"class.std::basic_ifstream" = type { %"class.std::basic_istream.base", %"class.std::basic_filebuf", %"class.std::basic_ios" }
%"class.std::basic_istream.base" = type { ptr, i64 }
%"class.std::basic_filebuf" = type { %"class.std::basic_streambuf", %union.pthread_mutex_t, %"class.std::__basic_file", i32, %struct.__mbstate_t, %struct.__mbstate_t, %struct.__mbstate_t, ptr, i64, i8, i8, i8, i8, ptr, ptr, i8, ptr, ptr, i64, ptr, ptr }
%"class.std::basic_streambuf" = type { ptr, ptr, ptr, ptr, ptr, ptr, ptr, %"class.std::locale" }
%union.pthread_mutex_t = type { %struct.__pthread_mutex_s }
%struct.__pthread_mutex_s = type { i32, i32, i32, i32, i32, i16, i16, %struct.__pthread_internal_list }
%struct.__pthread_internal_list = type { ptr, ptr }
%"class.std::__basic_file" = type <{ ptr, i8, [7 x i8] }>
%struct.__mbstate_t = type { i32, %union.anon }
%union.anon = type { i32 }
%"struct.pxrInternal_v0_24__pxrReserved__::JsParseError" = type { i32, i32, %"class.std::__cxx11::basic_string" }
%"class.std::__cxx11::basic_string" = type { %"struct.std::__cxx11::basic_string<char>::_Alloc_hider", i64, %union.anon.0 }
%"struct.std::__cxx11::basic_string<char>::_Alloc_hider" = type { ptr }
%union.anon.0 = type { i64, [8 x i8] }
%"class.pxrInternal_v0_24__pxrReserved__::JsValue" = type { %"class.std::shared_ptr" }
%"class.std::shared_ptr" = type { %"class.std::__shared_ptr" }
%"class.std::__shared_ptr" = type { ptr, %"class.std::__shared_count" }
%"class.std::__shared_count" = type { ptr }
%"class.std::basic_ofstream" = type { %"class.std::basic_ostream.base", %"class.std::basic_filebuf", %"class.std::basic_ios" }
%"class.std::basic_ostream.base" = type { ptr }

@stderr = external global ptr, align 8
@.str = private unnamed_addr constant [32 x i8] c"Usage: %s inputFile outputFile\0A\00", align 1
@.str.1 = private unnamed_addr constant [38 x i8] c"Error: failed to open input file '%s'\00", align 1
@.str.2 = private unnamed_addr constant [36 x i8] c"Error: parse error at %s:%d:%d: %s\0A\00", align 1
@_ZSt4cout = external global %"class.std::basic_ostream", align 8
@.str.3 = private unnamed_addr constant [39 x i8] c"Error: failed to open output file '%s'\00", align 1

; Function Attrs: mustprogress nounwind uwtable
define linkonce_odr dso_local void @_ZN32pxrInternal_v0_24__pxrReserved__12JsParseErrorD2Ev(ptr noundef nonnull align 8 dereferenceable(40) %0) unnamed_addr #5 comdat align 2 {
  %2 = alloca ptr, align 8
  store ptr %0, ptr %2, align 8
  %3 = load ptr, ptr %2, align 8
  %4 = getelementptr inbounds nuw %"struct.pxrInternal_v0_24__pxrReserved__::JsParseError", ptr %3, i32 0, i32 2
  call void @_ZNSt7__cxx1112basic_stringIcSt11char_traitsIcESaIcEED1Ev(ptr noundef nonnull align 8 dereferenceable(32) %4) #3
  ret void
}

; Function Attrs: mustprogress nounwind uwtable
define linkonce_odr dso_local void @_ZN32pxrInternal_v0_24__pxrReserved__12JsParseErrorC2Ev(ptr noundef nonnull align 8 dereferenceable(40) %0) unnamed_addr #5 comdat align 2 {
  %2 = alloca ptr, align 8
  store ptr %0, ptr %2, align 8
  %3 = load ptr, ptr %2, align 8
  %4 = getelementptr inbounds nuw %"struct.pxrInternal_v0_24__pxrReserved__::JsParseError", ptr %3, i32 0, i32 0
  store i32 0, ptr %4, align 8
  %5 = getelementptr inbounds nuw %"struct.pxrInternal_v0_24__pxrReserved__::JsParseError", ptr %3, i32 0, i32 1
  store i32 0, ptr %5, align 4
  %6 = getelementptr inbounds nuw %"struct.pxrInternal_v0_24__pxrReserved__::JsParseError", ptr %3, i32 0, i32 2
  call void @_ZNSt7__cxx1112basic_stringIcSt11char_traitsIcESaIcEEC1Ev(ptr noundef nonnull align 8 dereferenceable(32) %6) #3
  ret void
}

; Function Attrs: mustprogress norecurse uwtable
define dso_local noundef i32 @main(i32 noundef %0, ptr noundef %1) #4 personality ptr @__gxx_personality_v0 {
  %3 = alloca i32, align 4
  %4 = alloca i32, align 4
  %5 = alloca ptr, align 8
  %6 = alloca %"class.std::basic_ifstream", align 8
  %7 = alloca ptr, align 8
  %8 = alloca i32, align 4
  %9 = alloca i32, align 4
  %10 = alloca %"struct.pxrInternal_v0_24__pxrReserved__::JsParseError", align 8
  %11 = alloca %"class.pxrInternal_v0_24__pxrReserved__::JsValue", align 8
  %12 = alloca %"class.std::basic_ofstream", align 8
  store i32 0, ptr %3, align 4
  store i32 %0, ptr %4, align 4
  store ptr %1, ptr %5, align 8
  %13 = load i32, ptr %4, align 4
  %14 = icmp ne i32 %13, 3
  br i1 %14, label %15, label %21

15:                                               ; preds = %2
  %16 = load ptr, ptr @stderr, align 8
  %17 = load ptr, ptr %5, align 8
  %18 = getelementptr inbounds ptr, ptr %17, i64 0
  %19 = load ptr, ptr %18, align 8
  %20 = call i32 (ptr, ptr, ...) @fprintf(ptr noundef %16, ptr noundef @.str, ptr noundef %19) #3
  store i32 1, ptr %3, align 4
  br label %108

21:                                               ; preds = %2
  %22 = load ptr, ptr %5, align 8
  %23 = getelementptr inbounds ptr, ptr %22, i64 1
  %24 = load ptr, ptr %23, align 8
  call void @_ZNSt14basic_ifstreamIcSt11char_traitsIcEEC1EPKcSt13_Ios_Openmode(ptr noundef nonnull align 8 dereferenceable(256) %6, ptr noundef %24, i32 noundef 8)
  %25 = load ptr, ptr %6, align 8
  %26 = getelementptr i8, ptr %25, i64 -24
  %27 = load i64, ptr %26, align 8
  %28 = getelementptr inbounds i8, ptr %6, i64 %27
  %29 = invoke noundef zeroext i1 @_ZNKSt9basic_iosIcSt11char_traitsIcEEntEv(ptr noundef nonnull align 8 dereferenceable(264) %28)
          to label %30 unwind label %37

30:                                               ; preds = %21
  br i1 %29, label %31, label %41

31:                                               ; preds = %30
  %32 = load ptr, ptr @stderr, align 8
  %33 = load ptr, ptr %5, align 8
  %34 = getelementptr inbounds ptr, ptr %33, i64 1
  %35 = load ptr, ptr %34, align 8
  %36 = call i32 (ptr, ptr, ...) @fprintf(ptr noundef %32, ptr noundef @.str.1, ptr noundef %35) #3
  store i32 2, ptr %3, align 4
  store i32 1, ptr %9, align 4
  br label %106

37:                                               ; preds = %41, %21
  %38 = landingpad { ptr, i32 }
          cleanup
  %39 = extractvalue { ptr, i32 } %38, 0
  store ptr %39, ptr %7, align 8
  %40 = extractvalue { ptr, i32 } %38, 1
  store i32 %40, ptr %8, align 4
  br label %107

41:                                               ; preds = %30
  invoke void @_ZN32pxrInternal_v0_24__pxrReserved__12JsParseErrorC2Ev(ptr noundef nonnull align 8 dereferenceable(40) %10)
          to label %42 unwind label %37

42:                                               ; preds = %41
  invoke void @_ZN32pxrInternal_v0_24__pxrReserved__13JsParseStreamERSiPNS_12JsParseErrorE(ptr dead_on_unwind writable sret(%"class.pxrInternal_v0_24__pxrReserved__::JsValue") align 8 %11, ptr noundef nonnull align 8 dereferenceable(16) %6, ptr noundef %10)
          to label %43 unwind label %58

43:                                               ; preds = %42
  %44 = invoke noundef zeroext i1 @_ZNK32pxrInternal_v0_24__pxrReserved__7JsValue6IsNullEv(ptr noundef nonnull align 8 dereferenceable(16) %11)
          to label %45 unwind label %62

45:                                               ; preds = %43
  br i1 %44, label %46, label %66

46:                                               ; preds = %45
  %47 = load ptr, ptr @stderr, align 8
  %48 = load ptr, ptr %5, align 8
  %49 = getelementptr inbounds ptr, ptr %48, i64 1
  %50 = load ptr, ptr %49, align 8
  %51 = getelementptr inbounds nuw %"struct.pxrInternal_v0_24__pxrReserved__::JsParseError", ptr %10, i32 0, i32 0
  %52 = load i32, ptr %51, align 8
  %53 = getelementptr inbounds nuw %"struct.pxrInternal_v0_24__pxrReserved__::JsParseError", ptr %10, i32 0, i32 1
  %54 = load i32, ptr %53, align 4
  %55 = getelementptr inbounds nuw %"struct.pxrInternal_v0_24__pxrReserved__::JsParseError", ptr %10, i32 0, i32 2
  %56 = call noundef ptr @_ZNKSt7__cxx1112basic_stringIcSt11char_traitsIcESaIcEE5c_strEv(ptr noundef nonnull align 8 dereferenceable(32) %55) #3
  %57 = call i32 (ptr, ptr, ...) @fprintf(ptr noundef %47, ptr noundef @.str.2, ptr noundef %50, i32 noundef %52, i32 noundef %54, ptr noundef %56) #3
  store i32 2, ptr %3, align 4
  store i32 1, ptr %9, align 4
  br label %103

58:                                               ; preds = %42
  %59 = landingpad { ptr, i32 }
          cleanup
  %60 = extractvalue { ptr, i32 } %59, 0
  store ptr %60, ptr %7, align 8
  %61 = extractvalue { ptr, i32 } %59, 1
  store i32 %61, ptr %8, align 4
  br label %105

62:                                               ; preds = %76, %74, %43
  %63 = landingpad { ptr, i32 }
          cleanup
  %64 = extractvalue { ptr, i32 } %63, 0
  store ptr %64, ptr %7, align 8
  %65 = extractvalue { ptr, i32 } %63, 1
  store i32 %65, ptr %8, align 4
  br label %104

66:                                               ; preds = %45
  %67 = load ptr, ptr %5, align 8
  %68 = getelementptr inbounds ptr, ptr %67, i64 2
  %69 = load ptr, ptr %68, align 8
  %70 = getelementptr inbounds i8, ptr %69, i64 0
  %71 = load i8, ptr %70, align 1
  %72 = sext i8 %71 to i32
  %73 = icmp eq i32 %72, 45
  br i1 %73, label %74, label %76

74:                                               ; preds = %66
  invoke void @_ZN32pxrInternal_v0_24__pxrReserved__15JsWriteToStreamERKNS_7JsValueERSo(ptr noundef nonnull align 8 dereferenceable(16) %11, ptr noundef nonnull align 8 dereferenceable(8) @_ZSt4cout)
          to label %75 unwind label %62

75:                                               ; preds = %74
  br label %102

76:                                               ; preds = %66
  %77 = load ptr, ptr %5, align 8
  %78 = getelementptr inbounds ptr, ptr %77, i64 2
  %79 = load ptr, ptr %78, align 8
  invoke void @_ZNSt14basic_ofstreamIcSt11char_traitsIcEEC1EPKcSt13_Ios_Openmode(ptr noundef nonnull align 8 dereferenceable(248) %12, ptr noundef %79, i32 noundef 16)
          to label %80 unwind label %62

80:                                               ; preds = %76
  %81 = load ptr, ptr %12, align 8
  %82 = getelementptr i8, ptr %81, i64 -24
  %83 = load i64, ptr %82, align 8
  %84 = getelementptr inbounds i8, ptr %12, i64 %83
  %85 = invoke noundef zeroext i1 @_ZNKSt9basic_iosIcSt11char_traitsIcEEntEv(ptr noundef nonnull align 8 dereferenceable(264) %84)
          to label %86 unwind label %93

86:                                               ; preds = %80
  br i1 %85, label %87, label %97

87:                                               ; preds = %86
  %88 = load ptr, ptr @stderr, align 8
  %89 = load ptr, ptr %5, align 8
  %90 = getelementptr inbounds ptr, ptr %89, i64 2
  %91 = load ptr, ptr %90, align 8
  %92 = call i32 (ptr, ptr, ...) @fprintf(ptr noundef %88, ptr noundef @.str.3, ptr noundef %91) #3
  store i32 2, ptr %3, align 4
  store i32 1, ptr %9, align 4
  br label %99

93:                                               ; preds = %97, %80
  %94 = landingpad { ptr, i32 }
          cleanup
  %95 = extractvalue { ptr, i32 } %94, 0
  store ptr %95, ptr %7, align 8
  %96 = extractvalue { ptr, i32 } %94, 1
  store i32 %96, ptr %8, align 4
  call void @_ZNSt14basic_ofstreamIcSt11char_traitsIcEED1Ev(ptr noundef nonnull align 8 dereferenceable(248) %12) #3
  br label %104

97:                                               ; preds = %86
  invoke void @_ZN32pxrInternal_v0_24__pxrReserved__15JsWriteToStreamERKNS_7JsValueERSo(ptr noundef nonnull align 8 dereferenceable(16) %11, ptr noundef nonnull align 8 dereferenceable(8) %12)
          to label %98 unwind label %93

98:                                               ; preds = %97
  store i32 0, ptr %9, align 4
  br label %99

99:                                               ; preds = %98, %87
  call void @_ZNSt14basic_ofstreamIcSt11char_traitsIcEED1Ev(ptr noundef nonnull align 8 dereferenceable(248) %12) #3
  %100 = load i32, ptr %9, align 4
  switch i32 %100, label %103 [
    i32 0, label %101
  ]

101:                                              ; preds = %99
  br label %102

102:                                              ; preds = %101, %75
  store i32 0, ptr %3, align 4
  store i32 1, ptr %9, align 4
  br label %103

103:                                              ; preds = %102, %99, %46
  call void @_ZN32pxrInternal_v0_24__pxrReserved__7JsValueD2Ev(ptr noundef nonnull align 8 dereferenceable(16) %11) #3
  call void @_ZN32pxrInternal_v0_24__pxrReserved__12JsParseErrorD2Ev(ptr noundef nonnull align 8 dereferenceable(40) %10) #3
  br label %106

104:                                              ; preds = %93, %62
  call void @_ZN32pxrInternal_v0_24__pxrReserved__7JsValueD2Ev(ptr noundef nonnull align 8 dereferenceable(16) %11) #3
  br label %105

105:                                              ; preds = %104, %58
  call void @_ZN32pxrInternal_v0_24__pxrReserved__12JsParseErrorD2Ev(ptr noundef nonnull align 8 dereferenceable(40) %10) #3
  br label %107

106:                                              ; preds = %103, %31
  call void @_ZNSt14basic_ifstreamIcSt11char_traitsIcEED1Ev(ptr noundef nonnull align 8 dereferenceable(256) %6) #3
  br label %108

107:                                              ; preds = %105, %37
  call void @_ZNSt14basic_ifstreamIcSt11char_traitsIcEED1Ev(ptr noundef nonnull align 8 dereferenceable(256) %6) #3
  br label %110

108:                                              ; preds = %106, %15
  %109 = load i32, ptr %3, align 4
  ret i32 %109

110:                                              ; preds = %107
  %111 = load ptr, ptr %7, align 8
  %112 = load i32, ptr %8, align 4
  %113 = insertvalue { ptr, i32 } poison, ptr %111, 0
  %114 = insertvalue { ptr, i32 } %113, i32 %112, 1
  resume { ptr, i32 } %114
}