; Function Attrs: mustprogress norecurse uwtable
define dso_local noundef range(i32 0, 3) i32 @main(i32 noundef %0, ptr noundef readonly captures(none) %1) local_unnamed_addr #3 personality ptr @__gxx_personality_v0 {
  %3 = alloca %"class.std::basic_ifstream", align 8
  %4 = alloca %"struct.pxrInternal_v0_24__pxrReserved__::JsParseError", align 8
  %5 = alloca %"class.pxrInternal_v0_24__pxrReserved__::JsValue", align 8
  %6 = alloca %"class.std::basic_ofstream", align 8
  %.not = icmp eq i32 %0, 3
  br i1 %.not, label %11, label %7

7:                                                ; preds = %2
  %8 = load ptr, ptr @stderr, align 8
  %9 = load ptr, ptr %1, align 8
  %10 = tail call i32 (ptr, ptr, ...) @fprintf(ptr noundef %8, ptr noundef nonnull @.str, ptr noundef %9) #7
  br label %105

11:                                               ; preds = %2
  %12 = getelementptr inbounds nuw i8, ptr %1, i64 8
  %13 = load ptr, ptr %12, align 8
  call void @_ZNSt14basic_ifstreamIcSt11char_traitsIcEEC1EPKcSt13_Ios_Openmode(ptr noundef nonnull align 8 dereferenceable(256) %3, ptr noundef %13, i32 noundef 8)
  %14 = load ptr, ptr %3, align 8
  %15 = getelementptr i8, ptr %14, i64 -24
  %16 = load i64, ptr %15, align 8
  %17 = getelementptr inbounds i8, ptr %3, i64 %16
  %18 = invoke noundef zeroext i1 @_ZNKSt9basic_iosIcSt11char_traitsIcEEntEv(ptr noundef nonnull align 8 dereferenceable(264) %17)
          to label %19 unwind label %24

19:                                               ; preds = %11
  br i1 %18, label %20, label %26

20:                                               ; preds = %19
  %21 = load ptr, ptr @stderr, align 8
  %22 = load ptr, ptr %12, align 8
  %23 = call i32 (ptr, ptr, ...) @fprintf(ptr noundef %21, ptr noundef nonnull @.str.1, ptr noundef %22) #7
  br label %103

24:                                               ; preds = %11
  %25 = landingpad { ptr, i32 }
          cleanup
  br label %104

26:                                               ; preds = %19
  store i32 0, ptr %4, align 8
  %27 = getelementptr inbounds nuw i8, ptr %4, i64 4
  store i32 0, ptr %27, align 4
  %28 = getelementptr inbounds nuw i8, ptr %4, i64 8
  call void @_ZNSt7__cxx1112basic_stringIcSt11char_traitsIcESaIcEEC1Ev(ptr noundef nonnull align 8 dereferenceable(32) %28) #8
  invoke void @_ZN32pxrInternal_v0_24__pxrReserved__13JsParseStreamERSiPNS_12JsParseErrorE(ptr dead_on_unwind nonnull writable sret(%"class.pxrInternal_v0_24__pxrReserved__::JsValue") align 8 %5, ptr noundef nonnull align 8 dereferenceable(16) %3, ptr noundef nonnull %4)
          to label %29 unwind label %39

29:                                               ; preds = %26
  %30 = invoke noundef zeroext i1 @_ZNK32pxrInternal_v0_24__pxrReserved__7JsValue6IsNullEv(ptr noundef nonnull align 8 dereferenceable(16) %5)
          to label %31 unwind label %41

31:                                               ; preds = %29
  br i1 %30, label %32, label %43

32:                                               ; preds = %31
  %33 = load ptr, ptr @stderr, align 8
  %34 = load ptr, ptr %12, align 8
  %35 = load i32, ptr %4, align 8
  %36 = load i32, ptr %27, align 4
  %37 = call noundef ptr @_ZNKSt7__cxx1112basic_stringIcSt11char_traitsIcESaIcEE5c_strEv(ptr noundef nonnull align 8 dereferenceable(32) %28) #8
  %38 = call i32 (ptr, ptr, ...) @fprintf(ptr noundef %33, ptr noundef nonnull @.str.2, ptr noundef %34, i32 noundef %35, i32 noundef %36, ptr noundef %37) #7
  br label %64

39:                                               ; preds = %26
  %40 = landingpad { ptr, i32 }
          cleanup
  br label %102

41:                                               ; preds = %49, %48, %29
  %42 = landingpad { ptr, i32 }
          cleanup
  br label %101

43:                                               ; preds = %31
  %44 = getelementptr inbounds nuw i8, ptr %1, i64 16
  %45 = load ptr, ptr %44, align 8
  %46 = load i8, ptr %45, align 1
  %47 = icmp eq i8 %46, 45
  br i1 %47, label %48, label %49

48:                                               ; preds = %43
  invoke void @_ZN32pxrInternal_v0_24__pxrReserved__15JsWriteToStreamERKNS_7JsValueERSo(ptr noundef nonnull align 8 dereferenceable(16) %5, ptr noundef nonnull align 8 dereferenceable(8) @_ZSt4cout)
          to label %64 unwind label %41

49:                                               ; preds = %43
  invoke void @_ZNSt14basic_ofstreamIcSt11char_traitsIcEEC1EPKcSt13_Ios_Openmode(ptr noundef nonnull align 8 dereferenceable(248) %6, ptr noundef nonnull %45, i32 noundef 16)
          to label %50 unwind label %41

50:                                               ; preds = %49
  %51 = load ptr, ptr %6, align 8
  %52 = getelementptr i8, ptr %51, i64 -24
  %53 = load i64, ptr %52, align 8
  %54 = getelementptr inbounds i8, ptr %6, i64 %53
  %55 = invoke noundef zeroext i1 @_ZNKSt9basic_iosIcSt11char_traitsIcEEntEv(ptr noundef nonnull align 8 dereferenceable(264) %54)
          to label %56 unwind label %60

56:                                               ; preds = %50
  br i1 %55, label %.thread, label %62

.thread:                                          ; preds = %56
  %57 = load ptr, ptr @stderr, align 8
  %58 = load ptr, ptr %44, align 8
  %59 = call i32 (ptr, ptr, ...) @fprintf(ptr noundef %57, ptr noundef nonnull @.str.3, ptr noundef %58) #7
  call void @_ZNSt14basic_ofstreamIcSt11char_traitsIcEED1Ev(ptr noundef nonnull align 8 dereferenceable(248) %6) #8
  br label %64

60:                                               ; preds = %62, %50
  %61 = landingpad { ptr, i32 }
          cleanup
  call void @_ZNSt14basic_ofstreamIcSt11char_traitsIcEED1Ev(ptr noundef nonnull align 8 dereferenceable(248) %6) #8
  br label %101

62:                                               ; preds = %56
  invoke void @_ZN32pxrInternal_v0_24__pxrReserved__15JsWriteToStreamERKNS_7JsValueERSo(ptr noundef nonnull align 8 dereferenceable(16) %5, ptr noundef nonnull align 8 dereferenceable(8) %6)
          to label %63 unwind label %60

63:                                               ; preds = %62
  call void @_ZNSt14basic_ofstreamIcSt11char_traitsIcEED1Ev(ptr noundef nonnull align 8 dereferenceable(248) %6) #8
  br label %64

64:                                               ; preds = %48, %63, %.thread, %32
  %.217 = phi i32 [ 2, %32 ], [ 2, %.thread ], [ 0, %63 ], [ 0, %48 ]
  %65 = getelementptr inbounds nuw i8, ptr %5, i64 8
  %66 = load ptr, ptr %65, align 8
  %.not.i.i.i.i = icmp eq ptr %66, null
  br i1 %.not.i.i.i.i, label %_ZN32pxrInternal_v0_24__pxrReserved__7JsValueD2Ev.exit, label %67

67:                                               ; preds = %64
  %68 = getelementptr inbounds nuw i8, ptr %66, i64 8
  %69 = load atomic i64, ptr %68 acquire, align 8
  %70 = icmp eq i64 %69, 4294967297
  %71 = trunc i64 %69 to i32
  br i1 %70, label %72, label %77

72:                                               ; preds = %67
  store i32 0, ptr %68, align 8
  %73 = getelementptr inbounds nuw i8, ptr %66, i64 12
  store i32 0, ptr %73, align 4
  %74 = load ptr, ptr %66, align 8
  %75 = getelementptr inbounds nuw i8, ptr %74, i64 16
  %76 = load ptr, ptr %75, align 8
  call void %76(ptr noundef nonnull align 8 dereferenceable(16) %66) #8
  br label %_ZNSt16_Sp_counted_baseILN9__gnu_cxx12_Lock_policyE2EE24_M_release_last_use_coldEv.exit.sink.split.i.i.i.i.i

77:                                               ; preds = %67
  %78 = load i8, ptr @__libc_single_threaded, align 1
  %.not.i.i.i.i.i = icmp eq i8 %78, 0
  br i1 %.not.i.i.i.i.i, label %81, label %79

79:                                               ; preds = %77
  %80 = add nsw i32 %71, -1
  store i32 %80, ptr %68, align 4
  br label %83

81:                                               ; preds = %77
  %82 = atomicrmw volatile add ptr %68, i32 -1 acq_rel, align 4
  br label %83

83:                                               ; preds = %81, %79
  %.0.i.i.i.i.i = phi i32 [ %71, %79 ], [ %82, %81 ]
  %84 = icmp eq i32 %.0.i.i.i.i.i, 1
  br i1 %84, label %85, label %_ZN32pxrInternal_v0_24__pxrReserved__7JsValueD2Ev.exit

85:                                               ; preds = %83
  %86 = load ptr, ptr %66, align 8
  %87 = getelementptr inbounds nuw i8, ptr %86, i64 16
  %88 = load ptr, ptr %87, align 8
  call void %88(ptr noundef nonnull align 8 dereferenceable(16) %66) #8
  %89 = getelementptr inbounds nuw i8, ptr %66, i64 12
  %90 = load i8, ptr @__libc_single_threaded, align 1
  %.not.i.i.i.i.i.i.i = icmp eq i8 %90, 0
  br i1 %.not.i.i.i.i.i.i.i, label %94, label %91

91:                                               ; preds = %85
  %92 = load i32, ptr %89, align 4
  %93 = add nsw i32 %92, -1
  store i32 %93, ptr %89, align 4
  br label %96

94:                                               ; preds = %85
  %95 = atomicrmw volatile add ptr %89, i32 -1 acq_rel, align 4
  br label %96

96:                                               ; preds = %94, %91
  %.0.i.i.i.i.i.i.i = phi i32 [ %92, %91 ], [ %95, %94 ]
  %97 = icmp eq i32 %.0.i.i.i.i.i.i.i, 1
  br i1 %97, label %_ZNSt16_Sp_counted_baseILN9__gnu_cxx12_Lock_policyE2EE24_M_release_last_use_coldEv.exit.sink.split.i.i.i.i.i, label %_ZN32pxrInternal_v0_24__pxrReserved__7JsValueD2Ev.exit

_ZNSt16_Sp_counted_baseILN9__gnu_cxx12_Lock_policyE2EE24_M_release_last_use_coldEv.exit.sink.split.i.i.i.i.i: ; preds = %96, %72
  %98 = load ptr, ptr %66, align 8
  %99 = getelementptr inbounds nuw i8, ptr %98, i64 24
  %100 = load ptr, ptr %99, align 8
  call void %100(ptr noundef nonnull align 8 dereferenceable(16) %66) #8
  br label %_ZN32pxrInternal_v0_24__pxrReserved__7JsValueD2Ev.exit

_ZN32pxrInternal_v0_24__pxrReserved__7JsValueD2Ev.exit: ; preds = %64, %83, %96, %_ZNSt16_Sp_counted_baseILN9__gnu_cxx12_Lock_policyE2EE24_M_release_last_use_coldEv.exit.sink.split.i.i.i.i.i
  call void @_ZNSt7__cxx1112basic_stringIcSt11char_traitsIcESaIcEED1Ev(ptr noundef nonnull align 8 dereferenceable(32) %28) #8
  br label %103

101:                                              ; preds = %60, %41
  %.pn = phi { ptr, i32 } [ %42, %41 ], [ %61, %60 ]
  call void @_ZN32pxrInternal_v0_24__pxrReserved__7JsValueD2Ev(ptr noundef nonnull align 8 dereferenceable(16) %5) #8
  br label %102

102:                                              ; preds = %101, %39
  %.pn.pn = phi { ptr, i32 } [ %.pn, %101 ], [ %40, %39 ]
  call void @_ZNSt7__cxx1112basic_stringIcSt11char_traitsIcESaIcEED1Ev(ptr noundef nonnull align 8 dereferenceable(32) %28) #8
  br label %104

103:                                              ; preds = %_ZN32pxrInternal_v0_24__pxrReserved__7JsValueD2Ev.exit, %20
  %.116 = phi i32 [ 2, %20 ], [ %.217, %_ZN32pxrInternal_v0_24__pxrReserved__7JsValueD2Ev.exit ]
  call void @_ZNSt14basic_ifstreamIcSt11char_traitsIcEED1Ev(ptr noundef nonnull align 8 dereferenceable(256) %3) #8
  br label %105

104:                                              ; preds = %102, %24
  %.pn.pn.pn = phi { ptr, i32 } [ %.pn.pn, %102 ], [ %25, %24 ]
  call void @_ZNSt14basic_ifstreamIcSt11char_traitsIcEED1Ev(ptr noundef nonnull align 8 dereferenceable(256) %3) #8
  resume { ptr, i32 } %.pn.pn.pn

105:                                              ; preds = %103, %7
  %.015 = phi i32 [ 1, %7 ], [ %.116, %103 ]
  ret i32 %.015
}